target datalayout = "e-m:e-p270:32:32-p271:32:32-p272:64:64-i64:64-i128:128-f80:128-n8:16:32:64-S128"
target triple = "x86_64-pc-linux-gnu"

%struct.alts_frame_reader = type { ptr, [8 x i8], i64, i64, i64 }

; Function Attrs: mustprogress nounwind uwtable
define noundef zeroext i1 @_Z23alts_reset_frame_readerP17alts_frame_readerPh(ptr noundef %0, ptr noundef %1) #2 {
  %3 = alloca i1, align 1
  %4 = alloca ptr, align 8
  %5 = alloca ptr, align 8
  store ptr %0, ptr %4, align 8, !tbaa !26
  store ptr %1, ptr %5, align 8, !tbaa !8
  %6 = load ptr, ptr %5, align 8, !tbaa !8
  %7 = icmp eq ptr %6, null
  br i1 %7, label %8, label %9

8:                                                ; preds = %2
  store i1 false, ptr %3, align 1
  br label %19

9:                                                ; preds = %2
  %10 = load ptr, ptr %5, align 8, !tbaa !8
  %11 = load ptr, ptr %4, align 8, !tbaa !26
  %12 = getelementptr inbounds nuw %struct.alts_frame_reader, ptr %11, i32 0, i32 0
  store ptr %10, ptr %12, align 8, !tbaa !28
  %13 = load ptr, ptr %4, align 8, !tbaa !26
  %14 = getelementptr inbounds nuw %struct.alts_frame_reader, ptr %13, i32 0, i32 4
  store i64 0, ptr %14, align 8, !tbaa !31
  %15 = load ptr, ptr %4, align 8, !tbaa !26
  %16 = getelementptr inbounds nuw %struct.alts_frame_reader, ptr %15, i32 0, i32 2
  store i64 0, ptr %16, align 8, !tbaa !30
  %17 = load ptr, ptr %4, align 8, !tbaa !26
  %18 = getelementptr inbounds nuw %struct.alts_frame_reader, ptr %17, i32 0, i32 3
  store i64 0, ptr %18, align 8, !tbaa !32
  store i1 true, ptr %3, align 1
  br label %19

19:                                               ; preds = %9, %8
  %20 = load i1, ptr %3, align 1
  ret i1 %20
}