; Function Attrs: mustprogress nofree norecurse nosync nounwind willreturn memory(argmem: write) uwtable
define noundef zeroext i1 @_Z23alts_reset_frame_readerP17alts_frame_readerPh(ptr noundef writeonly captures(none) %0, ptr noundef %1) local_unnamed_addr #8 {
  %3 = icmp ne ptr %1, null
  br i1 %3, label %4, label %6

4:                                                ; preds = %2
  store ptr %1, ptr %0, align 8, !tbaa !15
  %5 = getelementptr inbounds nuw i8, ptr %0, i64 16
  tail call void @llvm.memset.p0.i64(ptr noundef nonnull align 8 dereferenceable(24) %5, i8 0, i64 24, i1 false)
  br label %6

6:                                                ; preds = %2, %4
  ret i1 %3
}